(lp0
I886866
aI721176
aI172022
aI893872
aI265414
aI453691
aI257237
aI935480
aI195803
aI376033
aI992593
aI185212
aI370816
aI285326
aI211658
aI840151
aI461710
aI481986
aI633210
aI375468
aI749047
aI228725
aI575387
aI420794
aI176172
aI916638
aI472716
aI200366
aI420669
aI965973
aI964282
aI375898
aI764139
aI654699
aI940452
aI189445
aI765377
aI610304
aI956297
aI617134
aI42847
aI335717
aI921071
aI320758
aI773040
aI784652
aI339610
aI167397
aI852325
aI1034957
aI831075
aI819780
aI574198
aI392085
aI334293
aI836420
aI248043
aI354029
aI845467
aI442121
aI314426
aI1026091
aI659738
aI29539
aI708830
aI719003
aI366084
aI303518
aI186072
aI529541
aI1018175
aI466633
aI525619
aI462209
aI280564
aI130327
aI881925
aI241042
aI856727
aI270380
aI573804
aI445151
aI770062
aI669054
aI828849
aI967595
aI671313
aI761094
aI479531
aI103043
aI539890
aI880806
aI328449
aI1012355
aI988141
aI516152
aI695839
aI611050
aI742822
aI662906
aI341655
aI302385
aI824533
aI851100
aI277319
aI776309
aI768469
aI264850
aI1044682
aI994708
aI57616
aI1019687
aI1045149
aI899816
aI111376
aI810590
aI1039619
aI1037046
aI916808
aI783491
aI750814
aI731831
aI722098
aI709110
aI538518
aI490776
aI487887
aI366794
aI286389
aI202167
aI185322
aI152924
aI114958
aI91682
aI83331
aI29463
aI938260
aI841023
aI759737
aI731273
aI730863
aI468285
aI342829
aI186594
aI150106
aI144432
aI1036413
aI891454
aI843524
aI828716
aI718206
aI641976
aI534822
aI489709
aI96363
aI89487
aI937648
aI869192
aI823771
aI813031
aI672174
aI491750
aI392499
aI339807
aI334537
aI324070
aI257567
aI221323
aI194604
aI528
aI1043155
aI916240
aI863377
aI838159
aI730191
aI550157
aI443660
aI303110
aI147438
aI674731
aI632019
aI580385
aI475128
aI270056
aI234324
aI118282
aI28384
aI4075
aI842978
aI518502
aI414003
aI389895
aI672651
aI599959
aI519924
aI65648
aI922503
aI292911
aI1019823
aI998791
aI901528
aI164390
aI246603
aI1029380
aI712180
aI20570
aI380411
aI79134
aI909212
aI814385
aI803775
aI717055
aI697933
aI595453
aI65890
aI769998
aI77526
aI853263
aI260412
aI485381
aI567924
aI263634
aI263137
aI769429
aI338847
aI77589
aI194971
aI587069
aI353003
aI223605
aI321162
aI613489
aI429762
aI252436
aI611907
aI19969
aI682405
aI421101
aI860491
aI254845
aI843528
aI354018
aI556755
aI300987
aI537571
aI717883
aI415321
aI928285
aI823282
aI586802
aI685477
aI468902
aI348043
aI553612
aI647472
aI149520
aI575039
aI331666
aI595116
aI839441
aI976346
aI540391
aI285437
aI521517
aI475925
aI222119
aI788458
aI385738
aI1001248
aI335756
aI947986
aI952984
aI330285
aI471011
aI835301
aI165418
aI25892
aI555934
aI908797
aI787084
aI506701
aI453901
aI143690
aI1046628
aI871416
aI863100
aI696312
aI640865
aI215894
aI840905
aI761023
aI50794
aI384440
aI501704
aI792447
aI339136
aI1053
aI589876
aI795534
aI503055
aI416309
aI376852
aI107858
aI867230
aI450646
aI404963
aI933555
aI378095
aI515559
aI1019427
aI934840
aI418963
aI98587
aI105658
aI569220
aI758766
aI689366
aI632142
aI815238
aI468157
aI600885
aI586984
aI397842
aI994796
aI41157
aI160947
aI417349
aI752937
aI727562
aI958287
aI163173
aI136527
aI900429
aI320474
aI687581
aI381232
aI1036554
aI764731
aI448272
aI283639
aI68227
aI680862
aI641668
aI719385
aI115433
aI468421
aI2899
aI494242
aI530462
aI355933
aI1014058
aI145183
aI672777
aI764918
aI53246
aI267093
aI188701
aI129340
aI995939
aI461863
aI666697
aI782630
aI19702
aI646436
aI186434
aI950371
aI354055
aI611177
aI7036
aI610110
aI335937
aI837219
aI477551
aI397024
aI977980
aI330290
aI120049
aI21247
aI646130
aI318959
aI224200
aI975821
aI974017
aI407515
aI1012023
aI462331
aI157538
aI717006
aI707305
aI121331
aI414921
aI515042
aI129954
aI411118
aI463432
aI601992
aI481149
aI13892
aI124315
aI953235
aI819895
aI871034
aI552393
aI420811
aI309659
aI253083
aI915898
aI1022598
aI774720
aI388494
aI638848
aI416289
aI854348
aI397274
aI568297
aI905473
aI148914
aI661708
aI211527
aI470880
aI171558
aI608122
aI916371
aI973848
aI551824
aI280083
aI412816
aI161874
aI475135
aI1008033
aI397543
aI92895
aI462091
aI610624
aI321573
aI792793
aI475034
aI1011394
aI306316
aI276314
aI843069
aI966730
aI37586
aI681982
aI641688
aI796312
aI690989
aI671538
aI747317
aI37745
aI990637
aI934050
aI974071
aI944734
aI612383
aI803064
aI827543
aI202387
aI860699
aI515013
aI576628
aI288280
aI415575
aI760483
aI528260
aI676480
aI895083
aI718173
aI539667
aI820279
aI294156
aI372446
aI474947
aI241330
aI729075
aI751165
aI1027987
aI820897
aI301790
aI266661
aI149237
aI858684
aI246651
aI145556
aI92442
aI153240
aI363077
aI899332
aI812442
aI576336
aI151012
aI882402
aI556339
aI527671
aI64917
aI929025
aI473652
aI630909
aI195911
aI764356
a.