(lp0
I1048469
aI1004152
aI840360
aI712047
aI679927
aI488323
aI46928
aI590368
aI764139
aI375468
aI836420
aI172022
aI573804
aI420811
aI886866
aI555934
aI659738
aI721176
aI265414
aI462209
aI921071
aI773040
aI610304
aI719385
aI107858
aI320758
aI760483
aI376033
aI781795
aI1046628
aI965973
aI763431
aI359185
aI19702
aI359966
aI247955
aI41882
aI334293
aI806905
aI392085
aI420794
aI420669
aI696312
aI709159
aI176172
aI1034957
aI25892
aI280564
aI448272
aI535960
aI935480
aI743675
aI654699
aI840151
aI103043
aI144959
aI715407
aI481986
aI995939
aI453691
aI946559
aI258047
aI392801
aI525619
aI335717
aI532854
aI120779
aI604396
aI472716
aI255003
aI529541
aI632142
aI1031400
aI611907
aI964833
aI48624
aI292787
aI835301
aI270213
aI165418
aI477551
aI856727
aI1044988
aI42847
aI770062
aI695839
aI940452
aI516152
aI956297
aI539499
aI1053
aI533185
aI89886
aI1044682
aI185212
aI949299
aI777018
aI433505
aI1848
aI167397
aI105658
aI204729
aI988141
aI730289
aI761094
aI794161
aI3104
aI739905
aI772562
aI732073
aI31902
aI867230
aI788458
aI881925
aI504494
aI397274
aI461710
aI758766
aI285437
aI586984
aI343460
aI837526
aI421062
aI831075
aI445151
aI328449
aI916371
aI643709
aI1009570
aI233958
aI942172
aI331458
aI851100
aI479531
aI772996
aI638848
aI463432
aI29539
aI719003
aI728009
aI515042
aI764918
aI267093
aI462782
aI440396
aI112996
aI231658
aI742822
aI407515
aI289370
aI546941
aI744765
aI860699
aI239435
aI888420
aI215456
aI79314
aI758122
aI320474
aI354029
aI303518
aI233887
aI782630
aI462800
aI916638
aI995768
aI556755
aI867293
aI535477
aI819780
aI148390
aI199633
aI905473
aI277319
aI153872
aI402305
aI280076
aI37586
aI164984
aI708830
aI823413
aI898318
aI908797
aI271827
aI779254
aI967595
aI468421
aI241235
aI929986
aI994796
aI933555
aI796573
aI845296
aI751984
aI893872
aI1015109
aI589512
aI325743
aI643013
aI1038833
aI539890
aI871260
aI579303
aI295299
aI929025
aI952811
aI557597
aI860834
aI307396
aI542145
aI331842
aI1032244
aI570538
aI43936
aI748402
aI585111
aI950371
aI418963
aI834684
aI668540
aI129340
aI524388
aI28918
aI687581
aI801979
aI156167
aI305423
aI947290
aI749047
aI475875
aI437168
aI489972
aI304809
aI837219
aI41157
aI647097
aI25522
aI729828
aI576336
aI690190
aI815238
aI263478
aI219891
aI462091
aI989493
aI100557
aI689487
aI477341
aI998160
aI861700
aI824533
aI168600
aI883811
aI160426
aI840533
aI149237
aI265453
aI665760
aI383478
aI915050
aI172988
aI330285
aI117523
aI328112
aI494242
aI264808
aI922899
aI329242
aI532458
aI9440
aI324416
aI633210
aI416733
aI792793
aI805742
aI751165
aI777120
aI989206
aI954490
aI71104
aI581139
aI332178
aI661708
aI569220
aI370631
aI280083
aI520885
aI784395
aI379260
aI904612
aI344620
aI613003
aI252987
aI92616
aI366863
aI825213
aI221892
aI983785
aI641668
aI827543
aI970508
aI202387
aI289339
aI431049
aI394602
aI187468
aI298977
aI316201
aI212405
aI411118
aI792872
aI645238
aI364620
aI1036749
aI355948
aI108521
aI530462
aI529804
aI1035210
aI849359
aI186670
aI131038
aI709762
aI679699
aI614894
aI382420
aI239949
aI113812
aI79978
aI935638
aI1045121
aI1025368
aI1005332
aI989850
aI985519
aI983878
aI974120
aI964285
aI961009
aI956555
aI944948
aI944888
aI942810
aI932809
aI931276
aI928338
aI926931
aI910710
aI904125
aI901199
aI898301
aI882308
aI881188
aI879208
aI865658
aI858794
aI857154
aI856675
aI840671
aI807723
aI806795
aI805643
aI802830
aI783376
aI779616
aI773089
aI767876
aI749013
aI745946
aI735701
aI730747
aI707323
aI703422
aI697305
aI691976
aI688016
aI669552
aI633661
aI617755
aI610755
aI591555
aI577847
aI574237
aI564761
aI558295
aI557126
aI550042
aI531514
aI527139
aI504057
aI498513
aI491626
aI488273
aI480274
aI458728
aI456978
aI455985
aI445961
aI434928
aI426246
aI419294
aI417415
aI410985
aI397481
aI374655
aI370305
aI369264
aI365201
aI352471
aI350944
aI347406
aI346133
aI310487
aI292011
aI287288
aI284588
aI282248
aI274473
aI271028
aI269761
aI268938
aI263271
aI259511
aI226427
aI221455
aI218247
aI216643
aI210051
aI191983
aI189763
aI183633
aI167005
aI161399
aI155115
aI151344
aI131758
aI119328
aI110500
aI103915
aI103869
aI84924
aI58094
aI47057
aI47006
aI26466
aI3571
aI1046222
aI1041234
aI1041148
aI1034720
aI1018604
aI1015520
aI1006960
aI1005804
aI994434
aI986810
aI977933
aI949653
aI925970
aI907850
aI888701
aI880167
aI876830
aI874638
aI864843
aI861052
aI858599
aI857672
aI837999
aI832495
aI765774
aI764713
aI749276
aI745857
aI729114
aI717521
aI706094
aI701503
aI700420
aI697681
aI697565
aI689518
aI673363
aI668224
aI645359
aI630886
aI617259
aI615056
aI597476
aI579460
aI579186
aI570390
aI563391
aI534002
aI469754
aI467069
aI453077
aI436897
aI433231
aI428048
a.